target datalayout = "e-m:e-p270:32:32-p271:32:32-p272:64:64-i64:64-i128:128-f80:128-n8:16:32:64-S128"
target triple = "x86_64-pc-linux-gnu"

%struct.png_struct_def = type { [1 x %struct.__jmp_buf_tag], ptr, ptr, i64, ptr, ptr, ptr, ptr, ptr, ptr, ptr, ptr, ptr, i8, i8, i32, i32, i32, i32, %struct.z_stream_s, ptr, i32, i32, i32, i32, i32, i32, i32, i32, i32, i32, i32, i32, i32, i32, i32, i32, i32, i32, i32, i32, i32, i64, i32, i32, i32, ptr, ptr, ptr, ptr, i64, i32, i32, ptr, i16, i32, i16, i8, i8, i8, i8, i8, i8, i8, i8, i8, i8, i8, i8, i8, i8, i8, i16, i8, i32, %struct.png_color_16_struct, %struct.png_color_16_struct, ptr, i32, i32, %struct.png_xy, i32, i32, i32, i32, i32, ptr, ptr, ptr, ptr, ptr, ptr, %struct.png_color_8_struct, %struct.png_color_8_struct, ptr, %struct.png_color_16_struct, ptr, ptr, ptr, ptr, ptr, ptr, ptr, ptr, ptr, i32, i32, i64, i64, i64, i64, i32, i32, ptr, ptr, i32, [29 x i8], i32, ptr, ptr, i32, i32, ptr, i8, i8, i16, i16, ptr, i32, i8, ptr, ptr, ptr, ptr, ptr, ptr, ptr, i8, i32, i32, i32, i64, %struct.png_unknown_chunk_t, i64, ptr, i64, i32, i32, ptr, [4 x ptr] }
%struct.__jmp_buf_tag = type { [8 x i64], i32, %struct.__sigset_t }
%struct.__sigset_t = type { [16 x i64] }
%struct.z_stream_s = type { ptr, i32, i64, ptr, i32, i64, ptr, ptr, ptr, ptr, ptr, i32, i64, i64 }
%struct.png_xy = type { i32, i32, i32, i32, i32, i32, i32, i32 }
%struct.png_color_8_struct = type { i8, i8, i8, i8, i8 }
%struct.png_color_16_struct = type { i8, i16, i16, i16, i16 }
%struct.png_unknown_chunk_t = type { [5 x i8], ptr, i64, i8 }
%struct.png_text_struct = type { i32, ptr, ptr, i64, i64, ptr, ptr }

@.str.9 = private unnamed_addr constant [24 x i8] c"no space in chunk cache\00", align 1
@.str.22 = private unnamed_addr constant [14 x i8] c"out of memory\00", align 1

; Function Attrs: nounwind uwtable
define void @png_crc_read(ptr noalias noundef %0, ptr noundef %1, i32 noundef %2) #0 {
  %4 = alloca ptr, align 8
  %5 = alloca ptr, align 8
  %6 = alloca i32, align 4
  store ptr %0, ptr %4, align 8, !tbaa !3
  store ptr %1, ptr %5, align 8, !tbaa !8
  store i32 %2, ptr %6, align 4, !tbaa !11
  %7 = load ptr, ptr %4, align 8, !tbaa !3
  %8 = icmp eq ptr %7, null
  br i1 %8, label %9, label %10

9:                                                ; preds = %3
  br label %19

10:                                               ; preds = %3
  %11 = load ptr, ptr %4, align 8, !tbaa !3
  %12 = load ptr, ptr %5, align 8, !tbaa !8
  %13 = load i32, ptr %6, align 4, !tbaa !11
  %14 = zext i32 %13 to i64
  call void @png_read_data(ptr noundef %11, ptr noundef %12, i64 noundef %14)
  %15 = load ptr, ptr %4, align 8, !tbaa !3
  %16 = load ptr, ptr %5, align 8, !tbaa !8
  %17 = load i32, ptr %6, align 4, !tbaa !11
  %18 = zext i32 %17 to i64
  call void @png_calculate_crc(ptr noundef %15, ptr noundef %16, i64 noundef %18)
  br label %19

19:                                               ; preds = %10, %9
  ret void
}

; Function Attrs: nounwind uwtable
define internal ptr @png_read_buffer(ptr noalias noundef %0, i64 noundef %1) #0 {
  %3 = alloca ptr, align 8
  %4 = alloca ptr, align 8
  %5 = alloca i64, align 8
  %6 = alloca ptr, align 8
  %7 = alloca i32, align 4
  store ptr %0, ptr %4, align 8, !tbaa !3
  store i64 %1, ptr %5, align 8, !tbaa !29
  call void @llvm.lifetime.start.p0(i64 8, ptr %6) #7
  %8 = load ptr, ptr %4, align 8, !tbaa !3
  %9 = getelementptr inbounds nuw %struct.png_struct_def, ptr %8, i32 0, i32 144
  %10 = load ptr, ptr %9, align 8, !tbaa !91
  store ptr %10, ptr %6, align 8, !tbaa !8
  %11 = load i64, ptr %5, align 8, !tbaa !29
  %12 = load ptr, ptr %4, align 8, !tbaa !3
  %13 = getelementptr inbounds nuw %struct.png_struct_def, ptr %12, i32 0, i32 141
  %14 = load i64, ptr %13, align 8, !tbaa !44
  %15 = icmp ugt i64 %11, %14
  br i1 %15, label %16, label %17

16:                                               ; preds = %2
  store ptr null, ptr %3, align 8
  store i32 1, ptr %7, align 4
  br label %54

17:                                               ; preds = %2
  %18 = load ptr, ptr %6, align 8, !tbaa !8
  %19 = icmp ne ptr %18, null
  br i1 %19, label %20, label %33

20:                                               ; preds = %17
  %21 = load i64, ptr %5, align 8, !tbaa !29
  %22 = load ptr, ptr %4, align 8, !tbaa !3
  %23 = getelementptr inbounds nuw %struct.png_struct_def, ptr %22, i32 0, i32 145
  %24 = load i64, ptr %23, align 8, !tbaa !92
  %25 = icmp ugt i64 %21, %24
  br i1 %25, label %26, label %33

26:                                               ; preds = %20
  %27 = load ptr, ptr %4, align 8, !tbaa !3
  %28 = getelementptr inbounds nuw %struct.png_struct_def, ptr %27, i32 0, i32 144
  store ptr null, ptr %28, align 8, !tbaa !91
  %29 = load ptr, ptr %4, align 8, !tbaa !3
  %30 = getelementptr inbounds nuw %struct.png_struct_def, ptr %29, i32 0, i32 145
  store i64 0, ptr %30, align 8, !tbaa !92
  %31 = load ptr, ptr %4, align 8, !tbaa !3
  %32 = load ptr, ptr %6, align 8, !tbaa !8
  call void @png_free(ptr noundef %31, ptr noundef %32)
  store ptr null, ptr %6, align 8, !tbaa !8
  br label %33

33:                                               ; preds = %26, %20, %17
  %34 = load ptr, ptr %6, align 8, !tbaa !8
  %35 = icmp eq ptr %34, null
  br i1 %35, label %36, label %52

36:                                               ; preds = %33
  %37 = load ptr, ptr %4, align 8, !tbaa !3
  %38 = load i64, ptr %5, align 8, !tbaa !29
  %39 = call noalias ptr @png_malloc_base(ptr noundef %37, i64 noundef %38)
  store ptr %39, ptr %6, align 8, !tbaa !8
  %40 = load ptr, ptr %6, align 8, !tbaa !8
  %41 = icmp ne ptr %40, null
  br i1 %41, label %42, label %51

42:                                               ; preds = %36
  %43 = load ptr, ptr %6, align 8, !tbaa !8
  %44 = load i64, ptr %5, align 8, !tbaa !29
  call void @llvm.memset.p0.i64(ptr align 1 %43, i8 0, i64 %44, i1 false)
  %45 = load ptr, ptr %6, align 8, !tbaa !8
  %46 = load ptr, ptr %4, align 8, !tbaa !3
  %47 = getelementptr inbounds nuw %struct.png_struct_def, ptr %46, i32 0, i32 144
  store ptr %45, ptr %47, align 8, !tbaa !91
  %48 = load i64, ptr %5, align 8, !tbaa !29
  %49 = load ptr, ptr %4, align 8, !tbaa !3
  %50 = getelementptr inbounds nuw %struct.png_struct_def, ptr %49, i32 0, i32 145
  store i64 %48, ptr %50, align 8, !tbaa !92
  br label %51

51:                                               ; preds = %42, %36
  br label %52

52:                                               ; preds = %51, %33
  %53 = load ptr, ptr %6, align 8, !tbaa !8
  store ptr %53, ptr %3, align 8
  store i32 1, ptr %7, align 4
  br label %54

54:                                               ; preds = %52, %16
  call void @llvm.lifetime.end.p0(i64 8, ptr %6) #7
  %55 = load ptr, ptr %3, align 8
  ret ptr %55
}

; Function Attrs: nounwind uwtable
define i32 @png_crc_finish(ptr noalias noundef %0, i32 noundef %1) #0 {
  %3 = alloca ptr, align 8
  %4 = alloca i32, align 4
  store ptr %0, ptr %3, align 8, !tbaa !3
  store i32 %1, ptr %4, align 4, !tbaa !11
  %5 = load ptr, ptr %3, align 8, !tbaa !3
  %6 = load i32, ptr %4, align 4, !tbaa !11
  %7 = call i32 @png_crc_finish_critical(ptr noundef %5, i32 noundef %6, i32 noundef 0)
  ret i32 %7
}

; Function Attrs: nounwind uwtable
define internal i32 @png_handle_tEXt(ptr noalias noundef %0, ptr noalias noundef %1, i32 noundef %2) #0 {
  %4 = alloca i32, align 4
  %5 = alloca ptr, align 8
  %6 = alloca ptr, align 8
  %7 = alloca i32, align 4
  %8 = alloca %struct.png_text_struct, align 8
  %9 = alloca ptr, align 8
  %10 = alloca ptr, align 8
  %11 = alloca ptr, align 8
  %12 = alloca i32, align 4
  %13 = alloca i32, align 4
  store ptr %0, ptr %5, align 8, !tbaa !3
  store ptr %1, ptr %6, align 8, !tbaa !13
  store i32 %2, ptr %7, align 4, !tbaa !11
  call void @llvm.lifetime.start.p0(i64 56, ptr %8) #7
  call void @llvm.lifetime.start.p0(i64 8, ptr %9) #7
  call void @llvm.lifetime.start.p0(i64 8, ptr %10) #7
  call void @llvm.lifetime.start.p0(i64 8, ptr %11) #7
  call void @llvm.lifetime.start.p0(i64 4, ptr %12) #7
  store i32 0, ptr %12, align 4, !tbaa !11
  %14 = load ptr, ptr %5, align 8, !tbaa !3
  %15 = getelementptr inbounds nuw %struct.png_struct_def, ptr %14, i32 0, i32 140
  %16 = load i32, ptr %15, align 4, !tbaa !42
  %17 = icmp ne i32 %16, 0
  br i1 %17, label %18, label %39

18:                                               ; preds = %3
  %19 = load ptr, ptr %5, align 8, !tbaa !3
  %20 = getelementptr inbounds nuw %struct.png_struct_def, ptr %19, i32 0, i32 140
  %21 = load i32, ptr %20, align 4, !tbaa !42
  %22 = icmp eq i32 %21, 1
  br i1 %22, label %23, label %27

23:                                               ; preds = %18
  %24 = load ptr, ptr %5, align 8, !tbaa !3
  %25 = load i32, ptr %7, align 4, !tbaa !11
  %26 = call i32 @png_crc_finish(ptr noundef %24, i32 noundef %25)
  store i32 0, ptr %4, align 4
  store i32 1, ptr %13, align 4
  br label %116

27:                                               ; preds = %18
  %28 = load ptr, ptr %5, align 8, !tbaa !3
  %29 = getelementptr inbounds nuw %struct.png_struct_def, ptr %28, i32 0, i32 140
  %30 = load i32, ptr %29, align 4, !tbaa !42
  %31 = add i32 %30, -1
  store i32 %31, ptr %29, align 4, !tbaa !42
  %32 = icmp eq i32 %31, 1
  br i1 %32, label %33, label %38

33:                                               ; preds = %27
  %34 = load ptr, ptr %5, align 8, !tbaa !3
  %35 = load i32, ptr %7, align 4, !tbaa !11
  %36 = call i32 @png_crc_finish(ptr noundef %34, i32 noundef %35)
  %37 = load ptr, ptr %5, align 8, !tbaa !3
  call void @png_chunk_benign_error(ptr noundef %37, ptr noundef @.str.9)
  store i32 0, ptr %4, align 4
  store i32 1, ptr %13, align 4
  br label %116

38:                                               ; preds = %27
  br label %39

39:                                               ; preds = %38, %3
  %40 = load ptr, ptr %5, align 8, !tbaa !3
  %41 = getelementptr inbounds nuw %struct.png_struct_def, ptr %40, i32 0, i32 15
  %42 = load i32, ptr %41, align 4, !tbaa !31
  %43 = and i32 %42, 4
  %44 = icmp ne i32 %43, 0
  br i1 %44, label %45, label %50

45:                                               ; preds = %39
  %46 = load ptr, ptr %5, align 8, !tbaa !3
  %47 = getelementptr inbounds nuw %struct.png_struct_def, ptr %46, i32 0, i32 15
  %48 = load i32, ptr %47, align 4, !tbaa !31
  %49 = or i32 %48, 8
  store i32 %49, ptr %47, align 4, !tbaa !31
  br label %50

50:                                               ; preds = %45, %39
  %51 = load ptr, ptr %5, align 8, !tbaa !3
  %52 = load i32, ptr %7, align 4, !tbaa !11
  %53 = add i32 %52, 1
  %54 = zext i32 %53 to i64
  %55 = call ptr @png_read_buffer(ptr noundef %51, i64 noundef %54)
  store ptr %55, ptr %9, align 8, !tbaa !8
  %56 = load ptr, ptr %9, align 8, !tbaa !8
  %57 = icmp eq ptr %56, null
  br i1 %57, label %58, label %63

58:                                               ; preds = %50
  %59 = load ptr, ptr %5, align 8, !tbaa !3
  %60 = load i32, ptr %7, align 4, !tbaa !11
  %61 = call i32 @png_crc_finish(ptr noundef %59, i32 noundef %60)
  %62 = load ptr, ptr %5, align 8, !tbaa !3
  call void @png_chunk_benign_error(ptr noundef %62, ptr noundef @.str.22)
  store i32 0, ptr %4, align 4
  store i32 1, ptr %13, align 4
  br label %116

63:                                               ; preds = %50
  %64 = load ptr, ptr %5, align 8, !tbaa !3
  %65 = load ptr, ptr %9, align 8, !tbaa !8
  %66 = load i32, ptr %7, align 4, !tbaa !11
  call void @png_crc_read(ptr noundef %64, ptr noundef %65, i32 noundef %66)
  %67 = load ptr, ptr %5, align 8, !tbaa !3
  %68 = load i32, ptr %12, align 4, !tbaa !11
  %69 = call i32 @png_crc_finish(ptr noundef %67, i32 noundef %68)
  %70 = icmp ne i32 %69, 0
  br i1 %70, label %71, label %72

71:                                               ; preds = %63
  store i32 0, ptr %4, align 4
  store i32 1, ptr %13, align 4
  br label %116

72:                                               ; preds = %63
  %73 = load ptr, ptr %9, align 8, !tbaa !8
  store ptr %73, ptr %10, align 8, !tbaa !8
  %74 = load ptr, ptr %10, align 8, !tbaa !8
  %75 = load i32, ptr %7, align 4, !tbaa !11
  %76 = zext i32 %75 to i64
  %77 = getelementptr inbounds nuw i8, ptr %74, i64 %76
  store i8 0, ptr %77, align 1, !tbaa !10
  %78 = load ptr, ptr %10, align 8, !tbaa !8
  store ptr %78, ptr %11, align 8, !tbaa !8
  br label %79

79:                                               ; preds = %84, %72
  %80 = load ptr, ptr %11, align 8, !tbaa !8
  %81 = load i8, ptr %80, align 1, !tbaa !10
  %82 = icmp ne i8 %81, 0
  br i1 %82, label %83, label %87

83:                                               ; preds = %79
  br label %84

84:                                               ; preds = %83
  %85 = load ptr, ptr %11, align 8, !tbaa !8
  %86 = getelementptr inbounds nuw i8, ptr %85, i32 1
  store ptr %86, ptr %11, align 8, !tbaa !8
  br label %79, !llvm.loop !188

87:                                               ; preds = %79
  %88 = load ptr, ptr %11, align 8, !tbaa !8
  %89 = load ptr, ptr %10, align 8, !tbaa !8
  %90 = load i32, ptr %7, align 4, !tbaa !11
  %91 = zext i32 %90 to i64
  %92 = getelementptr inbounds nuw i8, ptr %89, i64 %91
  %93 = icmp ne ptr %88, %92
  br i1 %93, label %94, label %97

94:                                               ; preds = %87
  %95 = load ptr, ptr %11, align 8, !tbaa !8
  %96 = getelementptr inbounds nuw i8, ptr %95, i32 1
  store ptr %96, ptr %11, align 8, !tbaa !8
  br label %97

97:                                               ; preds = %94, %87
  %98 = getelementptr inbounds nuw %struct.png_text_struct, ptr %8, i32 0, i32 0
  store i32 -1, ptr %98, align 8, !tbaa !154
  %99 = load ptr, ptr %10, align 8, !tbaa !8
  %100 = getelementptr inbounds nuw %struct.png_text_struct, ptr %8, i32 0, i32 1
  store ptr %99, ptr %100, align 8, !tbaa !156
  %101 = getelementptr inbounds nuw %struct.png_text_struct, ptr %8, i32 0, i32 5
  store ptr null, ptr %101, align 8, !tbaa !157
  %102 = getelementptr inbounds nuw %struct.png_text_struct, ptr %8, i32 0, i32 6
  store ptr null, ptr %102, align 8, !tbaa !158
  %103 = getelementptr inbounds nuw %struct.png_text_struct, ptr %8, i32 0, i32 4
  store i64 0, ptr %103, align 8, !tbaa !161
  %104 = load ptr, ptr %11, align 8, !tbaa !8
  %105 = getelementptr inbounds nuw %struct.png_text_struct, ptr %8, i32 0, i32 2
  store ptr %104, ptr %105, align 8, !tbaa !159
  %106 = load ptr, ptr %11, align 8, !tbaa !8
  %107 = call i64 @strlen(ptr noundef %106) #9
  %108 = getelementptr inbounds nuw %struct.png_text_struct, ptr %8, i32 0, i32 3
  store i64 %107, ptr %108, align 8, !tbaa !160
  %109 = load ptr, ptr %5, align 8, !tbaa !3
  %110 = load ptr, ptr %6, align 8, !tbaa !13
  %111 = call i32 @png_set_text_2(ptr noundef %109, ptr noundef %110, ptr noundef %8, i32 noundef 1)
  %112 = icmp eq i32 %111, 0
  br i1 %112, label %113, label %114

113:                                              ; preds = %97
  store i32 3, ptr %4, align 4
  store i32 1, ptr %13, align 4
  br label %116

114:                                              ; preds = %97
  %115 = load ptr, ptr %5, align 8, !tbaa !3
  call void @png_chunk_benign_error(ptr noundef %115, ptr noundef @.str.22)
  store i32 0, ptr %4, align 4
  store i32 1, ptr %13, align 4
  br label %116

116:                                              ; preds = %114, %113, %71, %58, %33, %23
  call void @llvm.lifetime.end.p0(i64 4, ptr %12) #7
  call void @llvm.lifetime.end.p0(i64 8, ptr %11) #7
  call void @llvm.lifetime.end.p0(i64 8, ptr %10) #7
  call void @llvm.lifetime.end.p0(i64 8, ptr %9) #7
  call void @llvm.lifetime.end.p0(i64 56, ptr %8) #7
  %117 = load i32, ptr %4, align 4
  ret i32 %117
}