; Function Attrs: nounwind uwtable
define internal range(i32 0, 4) i32 @png_handle_tEXt(ptr noalias noundef %0, ptr noalias noundef %1, i32 noundef %2) #0 {
  %4 = alloca %struct.png_text_struct, align 8
  call void @llvm.lifetime.start.p0(i64 56, ptr nonnull %4) #12
  %5 = getelementptr inbounds nuw i8, ptr %0, i64 1124
  %6 = load i32, ptr %5, align 4, !tbaa !44
  switch i32 %6, label %9 [
    i32 0, label %14
    i32 1, label %7
  ]

7:                                                ; preds = %3
  %8 = tail call fastcc range(i32 0, 2) i32 @png_crc_finish_critical(ptr noundef nonnull %0, i32 noundef %2, i32 noundef 0)
  br label %56

9:                                                ; preds = %3
  %10 = add i32 %6, -1
  store i32 %10, ptr %5, align 4, !tbaa !44
  %11 = icmp eq i32 %10, 1
  br i1 %11, label %12, label %14

12:                                               ; preds = %9
  %13 = tail call fastcc range(i32 0, 2) i32 @png_crc_finish_critical(ptr noundef nonnull %0, i32 noundef %2, i32 noundef 0)
  tail call void @png_chunk_benign_error(ptr noundef nonnull %0, ptr noundef nonnull @.str.9) #12
  br label %56

14:                                               ; preds = %3, %9
  %15 = getelementptr inbounds nuw i8, ptr %0, i64 300
  %16 = load i32, ptr %15, align 4, !tbaa !24
  %17 = and i32 %16, 4
  %.not40 = icmp eq i32 %17, 0
  br i1 %.not40, label %20, label %18

18:                                               ; preds = %14
  %19 = or i32 %16, 8
  store i32 %19, ptr %15, align 4, !tbaa !24
  br label %20

20:                                               ; preds = %18, %14
  %21 = add i32 %2, 1
  %22 = zext i32 %21 to i64
  %23 = getelementptr inbounds nuw i8, ptr %0, i64 1176
  %24 = load ptr, ptr %23, align 8, !tbaa !104, !alias.scope !222
  %25 = getelementptr inbounds nuw i8, ptr %0, i64 1128
  %26 = load i64, ptr %25, align 8, !tbaa !46, !alias.scope !222
  %27 = icmp ult i64 %26, %22
  br i1 %27, label %38, label %28

28:                                               ; preds = %20
  %.not.i = icmp eq ptr %24, null
  br i1 %.not.i, label %34, label %29

29:                                               ; preds = %28
  %30 = getelementptr inbounds nuw i8, ptr %0, i64 1184
  %31 = load i64, ptr %30, align 8, !tbaa !108, !alias.scope !222
  %32 = icmp ult i64 %31, %22
  br i1 %32, label %33, label %png_crc_read.exit

33:                                               ; preds = %29
  tail call void @llvm.memset.p0.i64(ptr noundef nonnull align 8 dereferenceable(16) %23, i8 0, i64 16, i1 false), !alias.scope !222
  tail call void @png_free(ptr noundef nonnull %0, ptr noundef nonnull %24) #12
  br label %34

34:                                               ; preds = %33, %28
  %35 = tail call noalias ptr @png_malloc_base(ptr noundef nonnull %0, i64 noundef range(i64 0, 4294967296) %22) #12
  %.not27.i = icmp eq ptr %35, null
  br i1 %.not27.i, label %38, label %36

36:                                               ; preds = %34
  tail call void @llvm.memset.p0.i64(ptr nonnull align 1 %35, i8 0, i64 range(i64 0, 4294967296) %22, i1 false)
  store ptr %35, ptr %23, align 8, !tbaa !104, !alias.scope !222
  %37 = getelementptr inbounds nuw i8, ptr %0, i64 1184
  store i64 %22, ptr %37, align 8, !tbaa !108, !alias.scope !222
  br label %png_crc_read.exit

38:                                               ; preds = %20, %34
  %39 = tail call fastcc range(i32 0, 2) i32 @png_crc_finish_critical(ptr noundef nonnull %0, i32 noundef %2, i32 noundef 0)
  tail call void @png_chunk_benign_error(ptr noundef nonnull %0, ptr noundef nonnull @.str.22) #12
  br label %56

png_crc_read.exit:                                ; preds = %36, %29
  %.021.i = phi ptr [ %35, %36 ], [ %24, %29 ]
  %40 = zext i32 %2 to i64
  tail call void @png_read_data(ptr noundef nonnull %0, ptr noundef nonnull %.021.i, i64 noundef %40) #12
  tail call void @png_calculate_crc(ptr noundef nonnull %0, ptr noundef nonnull %.021.i, i64 noundef %40) #12
  %41 = tail call fastcc range(i32 0, 2) i32 @png_crc_finish_critical(ptr noundef nonnull %0, i32 noundef 0, i32 noundef 0)
  %.not41 = icmp eq i32 %41, 0
  br i1 %.not41, label %42, label %56

42:                                               ; preds = %png_crc_read.exit
  %43 = getelementptr inbounds nuw i8, ptr %.021.i, i64 %40
  store i8 0, ptr %43, align 1, !tbaa !3
  br label %44

44:                                               ; preds = %44, %42
  %.037 = phi ptr [ %.021.i, %42 ], [ %46, %44 ]
  %45 = load i8, ptr %.037, align 1, !tbaa !3
  %.not42 = icmp eq i8 %45, 0
  %46 = getelementptr inbounds nuw i8, ptr %.037, i64 1
  br i1 %.not42, label %47, label %44, !llvm.loop !225

47:                                               ; preds = %44
  %.not43 = icmp ne ptr %.037, %43
  %spec.select.idx = zext i1 %.not43 to i64
  %spec.select = getelementptr inbounds nuw i8, ptr %.037, i64 %spec.select.idx
  store i32 -1, ptr %4, align 8, !tbaa !180
  %48 = getelementptr inbounds nuw i8, ptr %4, i64 8
  store ptr %.021.i, ptr %48, align 8, !tbaa !182
  %49 = getelementptr inbounds nuw i8, ptr %4, i64 32
  %50 = getelementptr inbounds nuw i8, ptr %4, i64 16
  call void @llvm.memset.p0.i64(ptr noundef nonnull align 8 dereferenceable(24) %49, i8 0, i64 24, i1 false)
  store ptr %spec.select, ptr %50, align 8, !tbaa !185
  %51 = tail call i64 @strlen(ptr noundef nonnull dereferenceable(1) %spec.select) #13
  %52 = getelementptr inbounds nuw i8, ptr %4, i64 24
  store i64 %51, ptr %52, align 8, !tbaa !186
  %53 = call i32 @png_set_text_2(ptr noundef nonnull %0, ptr noundef %1, ptr noundef nonnull %4, i32 noundef 1) #12
  %54 = icmp eq i32 %53, 0
  br i1 %54, label %56, label %55

55:                                               ; preds = %47
  call void @png_chunk_benign_error(ptr noundef nonnull %0, ptr noundef nonnull @.str.22) #12
  br label %56

56:                                               ; preds = %47, %png_crc_read.exit, %55, %38, %12, %7
  %.0 = phi i32 [ 0, %7 ], [ 0, %12 ], [ 0, %38 ], [ 0, %55 ], [ 0, %png_crc_read.exit ], [ 3, %47 ]
  call void @llvm.lifetime.end.p0(i64 56, ptr nonnull %4) #12
  ret i32 %.0
}